; ModuleID = 'source-C-CXX/42/892.cpp'
source_filename = "source-C-CXX/42/892.cpp"
target datalayout = "e-m:e-p270:32:32-p271:32:32-p272:64:64-i64:64-f80:128-n8:16:32:64-S128"
target triple = "x86_64-pc-linux-gnu"

%"class.std::ios_base::Init" = type { i8 }
%"class.std::basic_istream" = type { i32 (...)**, i64, %"class.std::basic_ios" }
%"class.std::basic_ios" = type { %"class.std::ios_base", %"class.std::basic_ostream"*, i8, i8, %"class.std::basic_streambuf"*, %"class.std::ctype"*, %"class.std::num_put"*, %"class.std::num_get"* }
%"class.std::ios_base" = type { i32 (...)**, i64, i64, i32, i32, i32, %"struct.std::ios_base::_Callback_list"*, %"struct.std::ios_base::_Words", [8 x %"struct.std::ios_base::_Words"], i32, %"struct.std::ios_base::_Words"*, %"class.std::locale" }
%"struct.std::ios_base::_Callback_list" = type { %"struct.std::ios_base::_Callback_list"*, void (i32, %"class.std::ios_base"*, i32)*, i32, i32 }
%"struct.std::ios_base::_Words" = type { i8*, i64 }
%"class.std::locale" = type { %"class.std::locale::_Impl"* }
%"class.std::locale::_Impl" = type { i32, %"class.std::locale::facet"**, i64, %"class.std::locale::facet"**, i8** }
%"class.std::locale::facet" = type <{ i32 (...)**, i32, [4 x i8] }>
%"class.std::basic_ostream" = type { i32 (...)**, %"class.std::basic_ios" }
%"class.std::basic_streambuf" = type { i32 (...)**, i8*, i8*, i8*, i8*, i8*, i8*, %"class.std::locale" }
%"class.std::ctype" = type <{ %"class.std::locale::facet.base", [4 x i8], %struct.__locale_struct*, i8, [7 x i8], i32*, i32*, i16*, i8, [256 x i8], [256 x i8], i8, [6 x i8] }>
%"class.std::locale::facet.base" = type <{ i32 (...)**, i32 }>
%struct.__locale_struct = type { [13 x %struct.__locale_data*], i16*, i32*, i32*, [13 x i8*] }
%struct.__locale_data = type opaque
%"class.std::num_put" = type { %"class.std::locale::facet.base", [4 x i8] }
%"class.std::num_get" = type { %"class.std::locale::facet.base", [4 x i8] }

@_ZStL8__ioinit = internal global %"class.std::ios_base::Init" zeroinitializer, align 1
@__dso_handle = external hidden global i8
@_ZSt3cin = external global %"class.std::basic_istream", align 8
@_ZSt4cout = external global %"class.std::basic_ostream", align 8
@llvm.global_ctors = appending global [1 x { i32, void ()*, i8* }] [{ i32, void ()*, i8* } { i32 65535, void ()* @_GLOBAL__sub_I_892.cpp, i8* null }]

declare void @_ZNSt8ios_base4InitC1Ev(%"class.std::ios_base::Init"* nonnull align 1 dereferenceable(1)) unnamed_addr #0

; Function Attrs: nounwind
declare void @_ZNSt8ios_base4InitD1Ev(%"class.std::ios_base::Init"* nonnull align 1 dereferenceable(1)) unnamed_addr #1

; Function Attrs: nofree nounwind
declare i32 @__cxa_atexit(void (i8*)*, i8*, i8*) local_unnamed_addr #2

; Function Attrs: mustprogress norecurse sspstrong uwtable
define dso_local i32 @main() local_unnamed_addr #3 {
  %1 = alloca i8, align 1
  %2 = alloca [10001 x i32], align 16
  %3 = alloca i32, align 4
  %4 = bitcast [10001 x i32]* %2 to i8*
  call void @llvm.lifetime.start.p0i8(i64 40004, i8* nonnull %4) #7
  %5 = bitcast i32* %3 to i8*
  call void @llvm.lifetime.start.p0i8(i64 4, i8* nonnull %5) #7
  %6 = call nonnull align 8 dereferenceable(16) %"class.std::basic_istream"* @_ZNSirsERi(%"class.std::basic_istream"* nonnull align 8 dereferenceable(16) @_ZSt3cin, i32* nonnull align 4 dereferenceable(4) %3)
  %7 = load i32, i32* %3, align 4, !tbaa !5
  %8 = icmp slt i32 %7, 2
  br i1 %8, label %155, label %9

9:                                                ; preds = %0
  %10 = add nuw i32 %7, 1
  %11 = zext i32 %10 to i64
  %12 = add nsw i64 %11, -2
  %13 = icmp ult i64 %12, 8
  br i1 %13, label %66, label %14

14:                                               ; preds = %9
  %15 = and i64 %12, -8
  %16 = or i64 %15, 2
  %17 = add nsw i64 %15, -8
  %18 = lshr exact i64 %17, 3
  %19 = add nuw nsw i64 %18, 1
  %20 = and i64 %19, 3
  %21 = icmp ult i64 %17, 24
  br i1 %21, label %50, label %22

22:                                               ; preds = %14
  %23 = and i64 %19, 4611686018427387900
  br label %24

24:                                               ; preds = %24, %22
  %25 = phi i64 [ 0, %22 ], [ %47, %24 ]
  %26 = phi i64 [ %23, %22 ], [ %48, %24 ]
  %27 = or i64 %25, 2
  %28 = getelementptr inbounds [10001 x i32], [10001 x i32]* %2, i64 0, i64 %27
  %29 = bitcast i32* %28 to <4 x i32>*
  store <4 x i32> <i32 1, i32 1, i32 1, i32 1>, <4 x i32>* %29, align 8, !tbaa !5
  %30 = getelementptr inbounds i32, i32* %28, i64 4
  %31 = bitcast i32* %30 to <4 x i32>*
  store <4 x i32> <i32 1, i32 1, i32 1, i32 1>, <4 x i32>* %31, align 8, !tbaa !5
  %32 = or i64 %25, 10
  %33 = getelementptr inbounds [10001 x i32], [10001 x i32]* %2, i64 0, i64 %32
  %34 = bitcast i32* %33 to <4 x i32>*
  store <4 x i32> <i32 1, i32 1, i32 1, i32 1>, <4 x i32>* %34, align 8, !tbaa !5
  %35 = getelementptr inbounds i32, i32* %33, i64 4
  %36 = bitcast i32* %35 to <4 x i32>*
  store <4 x i32> <i32 1, i32 1, i32 1, i32 1>, <4 x i32>* %36, align 8, !tbaa !5
  %37 = or i64 %25, 18
  %38 = getelementptr inbounds [10001 x i32], [10001 x i32]* %2, i64 0, i64 %37
  %39 = bitcast i32* %38 to <4 x i32>*
  store <4 x i32> <i32 1, i32 1, i32 1, i32 1>, <4 x i32>* %39, align 8, !tbaa !5
  %40 = getelementptr inbounds i32, i32* %38, i64 4
  %41 = bitcast i32* %40 to <4 x i32>*
  store <4 x i32> <i32 1, i32 1, i32 1, i32 1>, <4 x i32>* %41, align 8, !tbaa !5
  %42 = or i64 %25, 26
  %43 = getelementptr inbounds [10001 x i32], [10001 x i32]* %2, i64 0, i64 %42
  %44 = bitcast i32* %43 to <4 x i32>*
  store <4 x i32> <i32 1, i32 1, i32 1, i32 1>, <4 x i32>* %44, align 8, !tbaa !5
  %45 = getelementptr inbounds i32, i32* %43, i64 4
  %46 = bitcast i32* %45 to <4 x i32>*
  store <4 x i32> <i32 1, i32 1, i32 1, i32 1>, <4 x i32>* %46, align 8, !tbaa !5
  %47 = add nuw i64 %25, 32
  %48 = add i64 %26, -4
  %49 = icmp eq i64 %48, 0
  br i1 %49, label %50, label %24, !llvm.loop !9

50:                                               ; preds = %24, %14
  %51 = phi i64 [ 0, %14 ], [ %47, %24 ]
  %52 = icmp eq i64 %20, 0
  br i1 %52, label %64, label %53

53:                                               ; preds = %50, %53
  %54 = phi i64 [ %61, %53 ], [ %51, %50 ]
  %55 = phi i64 [ %62, %53 ], [ %20, %50 ]
  %56 = or i64 %54, 2
  %57 = getelementptr inbounds [10001 x i32], [10001 x i32]* %2, i64 0, i64 %56
  %58 = bitcast i32* %57 to <4 x i32>*
  store <4 x i32> <i32 1, i32 1, i32 1, i32 1>, <4 x i32>* %58, align 8, !tbaa !5
  %59 = getelementptr inbounds i32, i32* %57, i64 4
  %60 = bitcast i32* %59 to <4 x i32>*
  store <4 x i32> <i32 1, i32 1, i32 1, i32 1>, <4 x i32>* %60, align 8, !tbaa !5
  %61 = add nuw i64 %54, 8
  %62 = add i64 %55, -1
  %63 = icmp eq i64 %62, 0
  br i1 %63, label %64, label %53, !llvm.loop !12

64:                                               ; preds = %53, %50
  %65 = icmp eq i64 %12, %15
  br i1 %65, label %68, label %66

66:                                               ; preds = %9, %64
  %67 = phi i64 [ 2, %9 ], [ %16, %64 ]
  br label %75

68:                                               ; preds = %75, %64
  %69 = icmp slt i32 %7, 4
  br i1 %69, label %155, label %70

70:                                               ; preds = %68
  %71 = lshr i32 %7, 1
  %72 = zext i32 %7 to i64
  %73 = add nuw nsw i32 %71, 1
  %74 = zext i32 %73 to i64
  br label %81

75:                                               ; preds = %66, %75
  %76 = phi i64 [ %78, %75 ], [ %67, %66 ]
  %77 = getelementptr inbounds [10001 x i32], [10001 x i32]* %2, i64 0, i64 %76
  store i32 1, i32* %77, align 4, !tbaa !5
  %78 = add nuw nsw i64 %76, 1
  %79 = icmp eq i64 %78, %11
  br i1 %79, label %68, label %75, !llvm.loop !14

80:                                               ; preds = %96
  br i1 %69, label %155, label %100

81:                                               ; preds = %70, %96
  %82 = phi i64 [ 2, %70 ], [ %97, %96 ]
  %83 = phi i64 [ 4, %70 ], [ %98, %96 ]
  %84 = getelementptr inbounds [10001 x i32], [10001 x i32]* %2, i64 0, i64 %82
  %85 = load i32, i32* %84, align 4, !tbaa !5
  %86 = icmp ne i32 %85, 0
  %87 = shl nuw nsw i64 %82, 1
  %88 = icmp ult i64 %87, %72
  %89 = select i1 %86, i1 %88, i1 false
  br i1 %89, label %90, label %96

90:                                               ; preds = %81, %90
  %91 = phi i64 [ %93, %90 ], [ %83, %81 ]
  %92 = getelementptr inbounds [10001 x i32], [10001 x i32]* %2, i64 0, i64 %91
  store i32 0, i32* %92, align 4, !tbaa !5
  %93 = add nuw nsw i64 %91, %82
  %94 = trunc i64 %93 to i32
  %95 = icmp sgt i32 %7, %94
  br i1 %95, label %90, label %96, !llvm.loop !16

96:                                               ; preds = %90, %81
  %97 = add nuw nsw i64 %82, 1
  %98 = add nuw nsw i64 %83, 2
  %99 = icmp eq i64 %97, %74
  br i1 %99, label %80, label %81, !llvm.loop !17

100:                                              ; preds = %80, %149
  %101 = phi i32 [ %150, %149 ], [ %7, %80 ]
  %102 = phi i64 [ %151, %149 ], [ 2, %80 ]
  %103 = getelementptr inbounds [10001 x i32], [10001 x i32]* %2, i64 0, i64 %102
  %104 = load i32, i32* %103, align 4, !tbaa !5
  %105 = icmp eq i32 %104, 0
  br i1 %105, label %149, label %106

106:                                              ; preds = %100
  %107 = trunc i64 %102 to i32
  %108 = sub nsw i32 %101, %107
  %109 = sext i32 %108 to i64
  %110 = getelementptr inbounds [10001 x i32], [10001 x i32]* %2, i64 0, i64 %109
  %111 = load i32, i32* %110, align 4, !tbaa !5
  %112 = icmp eq i32 %111, 0
  br i1 %112, label %149, label %113

113:                                              ; preds = %106
  %114 = call nonnull align 8 dereferenceable(8) %"class.std::basic_ostream"* @_ZNSolsEi(%"class.std::basic_ostream"* nonnull align 8 dereferenceable(8) @_ZSt4cout, i32 %107)
  call void @llvm.lifetime.start.p0i8(i64 1, i8* nonnull %1)
  store i8 32, i8* %1, align 1, !tbaa !18
  %115 = call nonnull align 8 dereferenceable(8) %"class.std::basic_ostream"* @_ZSt16__ostream_insertIcSt11char_traitsIcEERSt13basic_ostreamIT_T0_ES6_PKS3_l(%"class.std::basic_ostream"* nonnull align 8 dereferenceable(8) %114, i8* nonnull %1, i64 1)
  call void @llvm.lifetime.end.p0i8(i64 1, i8* nonnull %1)
  %116 = load i32, i32* %3, align 4, !tbaa !5
  %117 = sub nsw i32 %116, %107
  %118 = call nonnull align 8 dereferenceable(8) %"class.std::basic_ostream"* @_ZNSolsEi(%"class.std::basic_ostream"* nonnull align 8 dereferenceable(8) %115, i32 %117)
  %119 = bitcast %"class.std::basic_ostream"* %118 to i8**
  %120 = load i8*, i8** %119, align 8, !tbaa !19
  %121 = getelementptr i8, i8* %120, i64 -24
  %122 = bitcast i8* %121 to i64*
  %123 = load i64, i64* %122, align 8
  %124 = bitcast %"class.std::basic_ostream"* %118 to i8*
  %125 = add nsw i64 %123, 240
  %126 = getelementptr inbounds i8, i8* %124, i64 %125
  %127 = bitcast i8* %126 to %"class.std::ctype"**
  %128 = load %"class.std::ctype"*, %"class.std::ctype"** %127, align 8, !tbaa !21
  %129 = icmp eq %"class.std::ctype"* %128, null
  br i1 %129, label %130, label %131

130:                                              ; preds = %113
  call void @_ZSt16__throw_bad_castv() #8
  unreachable

131:                                              ; preds = %113
  %132 = getelementptr inbounds %"class.std::ctype", %"class.std::ctype"* %128, i64 0, i32 8
  %133 = load i8, i8* %132, align 8, !tbaa !25
  %134 = icmp eq i8 %133, 0
  br i1 %134, label %138, label %135

135:                                              ; preds = %131
  %136 = getelementptr inbounds %"class.std::ctype", %"class.std::ctype"* %128, i64 0, i32 9, i64 10
  %137 = load i8, i8* %136, align 1, !tbaa !18
  br label %144

138:                                              ; preds = %131
  call void @_ZNKSt5ctypeIcE13_M_widen_initEv(%"class.std::ctype"* nonnull align 8 dereferenceable(570) %128)
  %139 = bitcast %"class.std::ctype"* %128 to i8 (%"class.std::ctype"*, i8)***
  %140 = load i8 (%"class.std::ctype"*, i8)**, i8 (%"class.std::ctype"*, i8)*** %139, align 8, !tbaa !19
  %141 = getelementptr inbounds i8 (%"class.std::ctype"*, i8)*, i8 (%"class.std::ctype"*, i8)** %140, i64 6
  %142 = load i8 (%"class.std::ctype"*, i8)*, i8 (%"class.std::ctype"*, i8)** %141, align 8
  %143 = call signext i8 %142(%"class.std::ctype"* nonnull align 8 dereferenceable(570) %128, i8 signext 10)
  br label %144

144:                                              ; preds = %135, %138
  %145 = phi i8 [ %137, %135 ], [ %143, %138 ]
  %146 = call nonnull align 8 dereferenceable(8) %"class.std::basic_ostream"* @_ZNSo3putEc(%"class.std::basic_ostream"* nonnull align 8 dereferenceable(8) %118, i8 signext %145)
  %147 = call nonnull align 8 dereferenceable(8) %"class.std::basic_ostream"* @_ZNSo5flushEv(%"class.std::basic_ostream"* nonnull align 8 dereferenceable(8) %146)
  %148 = load i32, i32* %3, align 4, !tbaa !5
  br label %149

149:                                              ; preds = %100, %106, %144
  %150 = phi i32 [ %101, %100 ], [ %101, %106 ], [ %148, %144 ]
  %151 = add nuw nsw i64 %102, 1
  %152 = sdiv i32 %150, 2
  %153 = sext i32 %152 to i64
  %154 = icmp slt i64 %102, %153
  br i1 %154, label %100, label %155, !llvm.loop !27

155:                                              ; preds = %149, %68, %0, %80
  call void @llvm.lifetime.end.p0i8(i64 4, i8* nonnull %5) #7
  call void @llvm.lifetime.end.p0i8(i64 40004, i8* nonnull %4) #7
  ret i32 0
}

; Function Attrs: argmemonly mustprogress nofree nosync nounwind willreturn
declare void @llvm.lifetime.start.p0i8(i64 immarg, i8* nocapture) #4

declare nonnull align 8 dereferenceable(16) %"class.std::basic_istream"* @_ZNSirsERi(%"class.std::basic_istream"* nonnull align 8 dereferenceable(16), i32* nonnull align 4 dereferenceable(4)) local_unnamed_addr #0

declare nonnull align 8 dereferenceable(8) %"class.std::basic_ostream"* @_ZNSolsEi(%"class.std::basic_ostream"* nonnull align 8 dereferenceable(8), i32) local_unnamed_addr #0

; Function Attrs: argmemonly mustprogress nofree nosync nounwind willreturn
declare void @llvm.lifetime.end.p0i8(i64 immarg, i8* nocapture) #4

declare nonnull align 8 dereferenceable(8) %"class.std::basic_ostream"* @_ZSt16__ostream_insertIcSt11char_traitsIcEERSt13basic_ostreamIT_T0_ES6_PKS3_l(%"class.std::basic_ostream"* nonnull align 8 dereferenceable(8), i8*, i64) local_unnamed_addr #0

declare nonnull align 8 dereferenceable(8) %"class.std::basic_ostream"* @_ZNSo3putEc(%"class.std::basic_ostream"* nonnull align 8 dereferenceable(8), i8 signext) local_unnamed_addr #0

declare nonnull align 8 dereferenceable(8) %"class.std::basic_ostream"* @_ZNSo5flushEv(%"class.std::basic_ostream"* nonnull align 8 dereferenceable(8)) local_unnamed_addr #0

; Function Attrs: noreturn
declare void @_ZSt16__throw_bad_castv() local_unnamed_addr #5

declare void @_ZNKSt5ctypeIcE13_M_widen_initEv(%"class.std::ctype"* nonnull align 8 dereferenceable(570)) local_unnamed_addr #0

; Function Attrs: sspstrong uwtable
define internal void @_GLOBAL__sub_I_892.cpp() #6 section ".text.startup" {
  tail call void @_ZNSt8ios_base4InitC1Ev(%"class.std::ios_base::Init"* nonnull align 1 dereferenceable(1) @_ZStL8__ioinit)
  %1 = tail call i32 @__cxa_atexit(void (i8*)* bitcast (void (%"class.std::ios_base::Init"*)* @_ZNSt8ios_base4InitD1Ev to void (i8*)*), i8* getelementptr inbounds (%"class.std::ios_base::Init", %"class.std::ios_base::Init"* @_ZStL8__ioinit, i64 0, i32 0), i8* nonnull @__dso_handle) #7
  ret void
}


!llvm.module.flags = !{!0, !1, !2, !3}
!llvm.ident = !{!4}

!0 = !{i32 1, !"wchar_size", i32 4}
!1 = !{i32 7, !"PIC Level", i32 2}
!2 = !{i32 7, !"PIE Level", i32 2}
!3 = !{i32 7, !"uwtable", i32 1}
!4 = !{!"clang version 13.0.0"}
!5 = !{!6, !6, i64 0}
!6 = !{!"int", !7, i64 0}
!7 = !{!"omnipotent char", !8, i64 0}
!8 = !{!"Simple C++ TBAA"}
!9 = distinct !{!9, !10, !11}
!10 = !{!"llvm.loop.mustprogress"}
!11 = !{!"llvm.loop.isvectorized", i32 1}
!12 = distinct !{!12, !13}
!13 = !{!"llvm.loop.unroll.disable"}
!14 = distinct !{!14, !10, !15, !11}
!15 = !{!"llvm.loop.unroll.runtime.disable"}
!16 = distinct !{!16, !10}
!17 = distinct !{!17, !10}
!18 = !{!7, !7, i64 0}
!19 = !{!20, !20, i64 0}
!20 = !{!"vtable pointer", !8, i64 0}
!21 = !{!22, !23, i64 240}
!22 = !{!"_ZTSSt9basic_iosIcSt11char_traitsIcEE", !23, i64 216, !7, i64 224, !24, i64 225, !23, i64 232, !23, i64 240, !23, i64 248, !23, i64 256}
!23 = !{!"any pointer", !7, i64 0}
!24 = !{!"bool", !7, i64 0}
!25 = !{!26, !7, i64 56}
!26 = !{!"_ZTSSt5ctypeIcE", !23, i64 16, !24, i64 24, !23, i64 32, !23, i64 40, !23, i64 48, !7, i64 56, !7, i64 57, !7, i64 313, !7, i64 569}
!27 = distinct !{!27, !10}
